	.file	"lambda_capture_self.cpp"
	.text
.Ltext0:
	.section	.rodata
	.type	_ZStL19piecewise_construct, @object
	.size	_ZStL19piecewise_construct, 1
_ZStL19piecewise_construct:
	.zero	1
	.type	_ZStL13allocator_arg, @object
	.size	_ZStL13allocator_arg, 1
_ZStL13allocator_arg:
	.zero	1
	.type	_ZStL6ignore, @object
	.size	_ZStL6ignore, 1
_ZStL6ignore:
	.zero	1
	.section	.text._ZNSt9_Any_data9_M_accessEv,"axG",@progbits,_ZNSt9_Any_data9_M_accessEv,comdat
	.align 2
	.weak	_ZNSt9_Any_data9_M_accessEv
	.type	_ZNSt9_Any_data9_M_accessEv, @function
_ZNSt9_Any_data9_M_accessEv:
.LFB1118:
	.file 1 "/usr/include/c++/4.9/functional"
	.loc 1 1766 0
	.cfi_startproc
	pushq	%rbp
	.cfi_def_cfa_offset 16
	.cfi_offset 6, -16
	movq	%rsp, %rbp
	.cfi_def_cfa_register 6
	movq	%rdi, -8(%rbp)
	.loc 1 1766 0
	movq	-8(%rbp), %rax
	popq	%rbp
	.cfi_def_cfa 7, 8
	ret
	.cfi_endproc
.LFE1118:
	.size	_ZNSt9_Any_data9_M_accessEv, .-_ZNSt9_Any_data9_M_accessEv
	.section	.text._ZNKSt9_Any_data9_M_accessEv,"axG",@progbits,_ZNKSt9_Any_data9_M_accessEv,comdat
	.align 2
	.weak	_ZNKSt9_Any_data9_M_accessEv
	.type	_ZNKSt9_Any_data9_M_accessEv, @function
_ZNKSt9_Any_data9_M_accessEv:
.LFB1119:
	.loc 1 1767 0
	.cfi_startproc
	pushq	%rbp
	.cfi_def_cfa_offset 16
	.cfi_offset 6, -16
	movq	%rsp, %rbp
	.cfi_def_cfa_register 6
	movq	%rdi, -8(%rbp)
	.loc 1 1767 0
	movq	-8(%rbp), %rax
	popq	%rbp
	.cfi_def_cfa 7, 8
	ret
	.cfi_endproc
.LFE1119:
	.size	_ZNKSt9_Any_data9_M_accessEv, .-_ZNKSt9_Any_data9_M_accessEv
	.section	.text._ZNSt14_Function_baseC2Ev,"axG",@progbits,_ZNSt14_Function_baseC5Ev,comdat
	.align 2
	.weak	_ZNSt14_Function_baseC2Ev
	.type	_ZNSt14_Function_baseC2Ev, @function
_ZNSt14_Function_baseC2Ev:
.LFB1144:
	.loc 1 1993 0
	.cfi_startproc
	pushq	%rbp
	.cfi_def_cfa_offset 16
	.cfi_offset 6, -16
	movq	%rsp, %rbp
	.cfi_def_cfa_register 6
	movq	%rdi, -8(%rbp)
.LBB2:
	.loc 1 1993 0
	movq	-8(%rbp), %rax
	movq	$0, 16(%rax)
.LBE2:
	popq	%rbp
	.cfi_def_cfa 7, 8
	ret
	.cfi_endproc
.LFE1144:
	.size	_ZNSt14_Function_baseC2Ev, .-_ZNSt14_Function_baseC2Ev
	.weak	_ZNSt14_Function_baseC1Ev
	.set	_ZNSt14_Function_baseC1Ev,_ZNSt14_Function_baseC2Ev
	.section	.text._ZNSt14_Function_baseD2Ev,"axG",@progbits,_ZNSt14_Function_baseD5Ev,comdat
	.align 2
	.weak	_ZNSt14_Function_baseD2Ev
	.type	_ZNSt14_Function_baseD2Ev, @function
_ZNSt14_Function_baseD2Ev:
.LFB1147:
	.loc 1 1995 0
	.cfi_startproc
	.cfi_personality 0x3,__gxx_personality_v0
	.cfi_lsda 0x3,.LLSDA1147
	pushq	%rbp
	.cfi_def_cfa_offset 16
	.cfi_offset 6, -16
	movq	%rsp, %rbp
	.cfi_def_cfa_register 6
	subq	$16, %rsp
	movq	%rdi, -8(%rbp)
.LBB3:
	.loc 1 1997 0
	movq	-8(%rbp), %rax
	movq	16(%rax), %rax
	testq	%rax, %rax
	je	.L6
	.loc 1 1998 0
	movq	-8(%rbp), %rax
	movq	16(%rax), %rax
	movq	-8(%rbp), %rsi
	movq	-8(%rbp), %rcx
	movl	$3, %edx
	movq	%rcx, %rdi
	call	*%rax
.L6:
.LBE3:
	.loc 1 1999 0
	leave
	.cfi_def_cfa 7, 8
	ret
	.cfi_endproc
.LFE1147:
	.globl	__gxx_personality_v0
	.section	.gcc_except_table._ZNSt14_Function_baseD2Ev,"aG",@progbits,_ZNSt14_Function_baseD5Ev,comdat
.LLSDA1147:
	.byte	0xff
	.byte	0xff
	.byte	0x1
	.uleb128 .LLSDACSE1147-.LLSDACSB1147
.LLSDACSB1147:
.LLSDACSE1147:
	.section	.text._ZNSt14_Function_baseD2Ev,"axG",@progbits,_ZNSt14_Function_baseD5Ev,comdat
	.size	_ZNSt14_Function_baseD2Ev, .-_ZNSt14_Function_baseD2Ev
	.weak	_ZNSt14_Function_baseD1Ev
	.set	_ZNSt14_Function_baseD1Ev,_ZNSt14_Function_baseD2Ev
	.section	.text._ZNKSt14_Function_base8_M_emptyEv,"axG",@progbits,_ZNKSt14_Function_base8_M_emptyEv,comdat
	.align 2
	.weak	_ZNKSt14_Function_base8_M_emptyEv
	.type	_ZNKSt14_Function_base8_M_emptyEv, @function
_ZNKSt14_Function_base8_M_emptyEv:
.LFB1149:
	.loc 1 2002 0
	.cfi_startproc
	pushq	%rbp
	.cfi_def_cfa_offset 16
	.cfi_offset 6, -16
	movq	%rsp, %rbp
	.cfi_def_cfa_register 6
	movq	%rdi, -8(%rbp)
	.loc 1 2002 0
	movq	-8(%rbp), %rax
	movq	16(%rax), %rax
	testq	%rax, %rax
	sete	%al
	popq	%rbp
	.cfi_def_cfa 7, 8
	ret
	.cfi_endproc
.LFE1149:
	.size	_ZNKSt14_Function_base8_M_emptyEv, .-_ZNKSt14_Function_base8_M_emptyEv
	.text
	.align 2
	.type	_ZZ4mainENKUlvE_clEv, @function
_ZZ4mainENKUlvE_clEv:
.LFB1179:
	.file 2 "function/lambda_capture_self.cpp"
	.loc 2 5 0
	.cfi_startproc
	pushq	%rbp
	.cfi_def_cfa_offset 16
	.cfi_offset 6, -16
	movq	%rsp, %rbp
	.cfi_def_cfa_register 6
	subq	$16, %rsp
	movq	%rdi, -8(%rbp)
.LBB4:
	.loc 2 5 0
	movq	-8(%rbp), %rax
	movq	(%rax), %rax
	movq	%rax, %rdi
	call	_ZNKSt8functionIFvvEEclEv
.LBE4:
	leave
	.cfi_def_cfa 7, 8
	ret
	.cfi_endproc
.LFE1179:
	.size	_ZZ4mainENKUlvE_clEv, .-_ZZ4mainENKUlvE_clEv
	.section	.text._ZNSt8functionIFvvEED2Ev,"axG",@progbits,_ZNSt8functionIFvvEED5Ev,comdat
	.align 2
	.weak	_ZNSt8functionIFvvEED2Ev
	.type	_ZNSt8functionIFvvEED2Ev, @function
_ZNSt8functionIFvvEED2Ev:
.LFB1181:
	.loc 1 2142 0
	.cfi_startproc
	pushq	%rbp
	.cfi_def_cfa_offset 16
	.cfi_offset 6, -16
	movq	%rsp, %rbp
	.cfi_def_cfa_register 6
	subq	$16, %rsp
	movq	%rdi, -8(%rbp)
.LBB5:
	.loc 1 2142 0
	movq	-8(%rbp), %rax
	movq	%rax, %rdi
	call	_ZNSt14_Function_baseD2Ev
.LBE5:
	leave
	.cfi_def_cfa 7, 8
	ret
	.cfi_endproc
.LFE1181:
	.size	_ZNSt8functionIFvvEED2Ev, .-_ZNSt8functionIFvvEED2Ev
	.weak	_ZNSt8functionIFvvEED1Ev
	.set	_ZNSt8functionIFvvEED1Ev,_ZNSt8functionIFvvEED2Ev
	.text
	.globl	main
	.type	main, @function
main:
.LFB1178:
	.loc 2 4 0
	.cfi_startproc
	pushq	%rbp
	.cfi_def_cfa_offset 16
	.cfi_offset 6, -16
	movq	%rsp, %rbp
	.cfi_def_cfa_register 6
	pushq	%rbx
	subq	$56, %rsp
	.cfi_offset 3, -24
	movl	%edi, -52(%rbp)
	movq	%rsi, -64(%rbp)
.LBB6:
	.loc 2 5 0
	leaq	-48(%rbp), %rax
	movq	%rax, %rdx
	leaq	-48(%rbp), %rax
	movq	%rdx, %rsi
	movq	%rax, %rdi
	call	_ZNSt8functionIFvvEEC2IZ4mainEUlvE_vEET_
	.loc 2 6 0
	movl	$0, %ebx
	leaq	-48(%rbp), %rax
	movq	%rax, %rdi
	call	_ZNSt8functionIFvvEED1Ev
	movl	%ebx, %eax
.LBE6:
	.loc 2 7 0
	addq	$56, %rsp
	popq	%rbx
	popq	%rbp
	.cfi_def_cfa 7, 8
	ret
	.cfi_endproc
.LFE1178:
	.size	main, .-main
	.section	.text._ZNKSt8functionIFvvEEclEv,"axG",@progbits,_ZNKSt8functionIFvvEEclEv,comdat
	.align 2
	.weak	_ZNKSt8functionIFvvEEclEv
	.type	_ZNKSt8functionIFvvEEclEv, @function
_ZNKSt8functionIFvvEEclEv:
.LFB1237:
	.loc 1 2434 0
	.cfi_startproc
	pushq	%rbp
	.cfi_def_cfa_offset 16
	.cfi_offset 6, -16
	movq	%rsp, %rbp
	.cfi_def_cfa_register 6
	subq	$16, %rsp
	movq	%rdi, -8(%rbp)
	.loc 1 2437 0
	movq	-8(%rbp), %rax
	movq	%rax, %rdi
	call	_ZNKSt14_Function_base8_M_emptyEv
	testb	%al, %al
	je	.L17
	.loc 1 2438 0
	call	_ZSt25__throw_bad_function_callv
.L17:
	.loc 1 2439 0
	movq	-8(%rbp), %rax
	movq	24(%rax), %rax
	movq	-8(%rbp), %rdx
	movq	%rdx, %rdi
	call	*%rax
	.loc 1 2440 0
	leave
	.cfi_def_cfa 7, 8
	ret
	.cfi_endproc
.LFE1237:
	.size	_ZNKSt8functionIFvvEEclEv, .-_ZNKSt8functionIFvvEEclEv
	.section	.text._ZNSt31_Maybe_unary_or_binary_functionIvIEEC2Ev,"axG",@progbits,_ZNSt31_Maybe_unary_or_binary_functionIvIEEC5Ev,comdat
	.align 2
	.weak	_ZNSt31_Maybe_unary_or_binary_functionIvIEEC2Ev
	.type	_ZNSt31_Maybe_unary_or_binary_functionIvIEEC2Ev, @function
_ZNSt31_Maybe_unary_or_binary_functionIvIEEC2Ev:
.LFB1240:
	.loc 1 495 0
	.cfi_startproc
	pushq	%rbp
	.cfi_def_cfa_offset 16
	.cfi_offset 6, -16
	movq	%rsp, %rbp
	.cfi_def_cfa_register 6
	movq	%rdi, -8(%rbp)
	.loc 1 495 0
	popq	%rbp
	.cfi_def_cfa 7, 8
	ret
	.cfi_endproc
.LFE1240:
	.size	_ZNSt31_Maybe_unary_or_binary_functionIvIEEC2Ev, .-_ZNSt31_Maybe_unary_or_binary_functionIvIEEC2Ev
	.weak	_ZNSt31_Maybe_unary_or_binary_functionIvJEEC2Ev
	.set	_ZNSt31_Maybe_unary_or_binary_functionIvJEEC2Ev,_ZNSt31_Maybe_unary_or_binary_functionIvIEEC2Ev
	.weak	_ZNSt31_Maybe_unary_or_binary_functionIvIEEC1Ev
	.set	_ZNSt31_Maybe_unary_or_binary_functionIvIEEC1Ev,_ZNSt31_Maybe_unary_or_binary_functionIvIEEC2Ev
	.weak	_ZNSt31_Maybe_unary_or_binary_functionIvJEEC1Ev
	.set	_ZNSt31_Maybe_unary_or_binary_functionIvJEEC1Ev,_ZNSt31_Maybe_unary_or_binary_functionIvIEEC1Ev
	.text
	.type	_ZSt4moveIRZ4mainEUlvE_EONSt16remove_referenceIT_E4typeEOS3_, @function
_ZSt4moveIRZ4mainEUlvE_EONSt16remove_referenceIT_E4typeEOS3_:
.LFB1242:
	.file 3 "/usr/include/c++/4.9/bits/move.h"
	.loc 3 101 0
	.cfi_startproc
	pushq	%rbp
	.cfi_def_cfa_offset 16
	.cfi_offset 6, -16
	movq	%rsp, %rbp
	.cfi_def_cfa_register 6
	movq	%rdi, -8(%rbp)
	.loc 3 102 0
	movq	-8(%rbp), %rax
	popq	%rbp
	.cfi_def_cfa 7, 8
	ret
	.cfi_endproc
.LFE1242:
	.size	_ZSt4moveIRZ4mainEUlvE_EONSt16remove_referenceIT_E4typeEOS3_, .-_ZSt4moveIRZ4mainEUlvE_EONSt16remove_referenceIT_E4typeEOS3_
	.align 2
	.type	_ZNSt8functionIFvvEEC2IZ4mainEUlvE_vEET_, @function
_ZNSt8functionIFvvEEC2IZ4mainEUlvE_vEET_:
.LFB1243:
	.loc 1 2418 0
	.cfi_startproc
	.cfi_personality 0x3,__gxx_personality_v0
	.cfi_lsda 0x3,.LLSDA1243
	pushq	%rbp
	.cfi_def_cfa_offset 16
	.cfi_offset 6, -16
	movq	%rsp, %rbp
	.cfi_def_cfa_register 6
	pushq	%rbx
	subq	$24, %rsp
	.cfi_offset 3, -24
	movq	%rdi, -24(%rbp)
	movq	%rsi, -32(%rbp)
.LBB7:
	.loc 1 2420 0
	movq	-24(%rbp), %rax
	movq	%rax, %rdi
	call	_ZNSt31_Maybe_unary_or_binary_functionIvIEEC2Ev
	movq	-24(%rbp), %rax
	movq	%rax, %rdi
	call	_ZNSt14_Function_baseC2Ev
.LBB8:
	.loc 1 2424 0
	leaq	-32(%rbp), %rax
	movq	%rax, %rdi
	call	_ZNSt14_Function_base13_Base_managerIZ4mainEUlvE_E21_M_not_empty_functionIS1_EEbRKT_
	testb	%al, %al
	je	.L26
	.loc 1 2426 0
	leaq	-32(%rbp), %rax
	movq	%rax, %rdi
	call	_ZSt4moveIRZ4mainEUlvE_EONSt16remove_referenceIT_E4typeEOS3_
	movq	%rax, %rdx
	movq	-24(%rbp), %rax
	movq	%rdx, %rsi
	movq	%rax, %rdi
.LEHB0:
	call	_ZNSt14_Function_base13_Base_managerIZ4mainEUlvE_E15_M_init_functorERSt9_Any_dataOS1_
.LEHE0:
	.loc 1 2427 0
	movq	-24(%rbp), %rax
	movq	$_ZNSt17_Function_handlerIFvvEZ4mainEUlvE_E9_M_invokeERKSt9_Any_data, 24(%rax)
	.loc 1 2428 0
	movq	-24(%rbp), %rax
	movq	$_ZNSt14_Function_base13_Base_managerIZ4mainEUlvE_E10_M_managerERSt9_Any_dataRKS3_St18_Manager_operation, 16(%rax)
	jmp	.L26
.L25:
	movq	%rax, %rbx
.LBE8:
	.loc 1 2420 0
	movq	-24(%rbp), %rax
	movq	%rax, %rdi
	call	_ZNSt14_Function_baseD2Ev
	movq	%rbx, %rax
	movq	%rax, %rdi
.LEHB1:
	call	_Unwind_Resume
.LEHE1:
.L26:
.LBE7:
	.loc 1 2430 0
	addq	$24, %rsp
	popq	%rbx
	popq	%rbp
	.cfi_def_cfa 7, 8
	ret
	.cfi_endproc
.LFE1243:
	.section	.gcc_except_table,"a",@progbits
.LLSDA1243:
	.byte	0xff
	.byte	0xff
	.byte	0x1
	.uleb128 .LLSDACSE1243-.LLSDACSB1243
.LLSDACSB1243:
	.uleb128 .LEHB0-.LFB1243
	.uleb128 .LEHE0-.LEHB0
	.uleb128 .L25-.LFB1243
	.uleb128 0
	.uleb128 .LEHB1-.LFB1243
	.uleb128 .LEHE1-.LEHB1
	.uleb128 0
	.uleb128 0
.LLSDACSE1243:
	.text
	.size	_ZNSt8functionIFvvEEC2IZ4mainEUlvE_vEET_, .-_ZNSt8functionIFvvEEC2IZ4mainEUlvE_vEET_
	.type	_ZNSt14_Function_base13_Base_managerIZ4mainEUlvE_E21_M_not_empty_functionIS1_EEbRKT_, @function
_ZNSt14_Function_base13_Base_managerIZ4mainEUlvE_E21_M_not_empty_functionIS1_EEbRKT_:
.LFB1290:
	.loc 1 1945 0
	.cfi_startproc
	pushq	%rbp
	.cfi_def_cfa_offset 16
	.cfi_offset 6, -16
	movq	%rsp, %rbp
	.cfi_def_cfa_register 6
	movq	%rdi, -8(%rbp)
	.loc 1 1946 0
	movl	$1, %eax
	popq	%rbp
	.cfi_def_cfa 7, 8
	ret
	.cfi_endproc
.LFE1290:
	.size	_ZNSt14_Function_base13_Base_managerIZ4mainEUlvE_E21_M_not_empty_functionIS1_EEbRKT_, .-_ZNSt14_Function_base13_Base_managerIZ4mainEUlvE_E21_M_not_empty_functionIS1_EEbRKT_
	.type	_ZNSt14_Function_base13_Base_managerIZ4mainEUlvE_E15_M_init_functorERSt9_Any_dataOS1_, @function
_ZNSt14_Function_base13_Base_managerIZ4mainEUlvE_E15_M_init_functorERSt9_Any_dataOS1_:
.LFB1291:
	.loc 1 1925 0
	.cfi_startproc
	pushq	%rbp
	.cfi_def_cfa_offset 16
	.cfi_offset 6, -16
	movq	%rsp, %rbp
	.cfi_def_cfa_register 6
	pushq	%rbx
	subq	$40, %rsp
	.cfi_offset 3, -24
	movq	%rdi, -40(%rbp)
	movq	%rsi, -48(%rbp)
	.loc 1 1926 0
	movq	-48(%rbp), %rax
	movq	%rax, %rdi
	call	_ZSt4moveIRZ4mainEUlvE_EONSt16remove_referenceIT_E4typeEOS3_
	movq	%rax, %rdx
	subq	$8, %rsp
	movq	-40(%rbp), %rax
	pushq	%rbx
	movq	%rdx, %rsi
	movq	%rax, %rdi
	call	_ZNSt14_Function_base13_Base_managerIZ4mainEUlvE_E15_M_init_functorERSt9_Any_dataOS1_St17integral_constantIbLb0EE
	addq	$16, %rsp
	movq	-8(%rbp), %rbx
	leave
	.cfi_def_cfa 7, 8
	ret
	.cfi_endproc
.LFE1291:
	.size	_ZNSt14_Function_base13_Base_managerIZ4mainEUlvE_E15_M_init_functorERSt9_Any_dataOS1_, .-_ZNSt14_Function_base13_Base_managerIZ4mainEUlvE_E15_M_init_functorERSt9_Any_dataOS1_
	.type	_ZNSt17_Function_handlerIFvvEZ4mainEUlvE_E9_M_invokeERKSt9_Any_data, @function
_ZNSt17_Function_handlerIFvvEZ4mainEUlvE_E9_M_invokeERKSt9_Any_data:
.LFB1292:
	.loc 1 2037 0
	.cfi_startproc
	pushq	%rbp
	.cfi_def_cfa_offset 16
	.cfi_offset 6, -16
	movq	%rsp, %rbp
	.cfi_def_cfa_register 6
	subq	$16, %rsp
	movq	%rdi, -8(%rbp)
	.loc 1 2039 0
	movq	-8(%rbp), %rax
	movq	%rax, %rdi
	call	_ZNSt14_Function_base13_Base_managerIZ4mainEUlvE_E14_M_get_pointerERKSt9_Any_data
	movq	%rax, %rdi
	call	_ZZ4mainENKUlvE_clEv
	.loc 1 2041 0
	leave
	.cfi_def_cfa 7, 8
	ret
	.cfi_endproc
.LFE1292:
	.size	_ZNSt17_Function_handlerIFvvEZ4mainEUlvE_E9_M_invokeERKSt9_Any_data, .-_ZNSt17_Function_handlerIFvvEZ4mainEUlvE_E9_M_invokeERKSt9_Any_data
	.type	_ZNSt14_Function_base13_Base_managerIZ4mainEUlvE_E10_M_managerERSt9_Any_dataRKS3_St18_Manager_operation, @function
_ZNSt14_Function_base13_Base_managerIZ4mainEUlvE_E10_M_managerERSt9_Any_dataRKS3_St18_Manager_operation:
.LFB1293:
	.loc 1 1899 0
	.cfi_startproc
	pushq	%rbp
	.cfi_def_cfa_offset 16
	.cfi_offset 6, -16
	movq	%rsp, %rbp
	.cfi_def_cfa_register 6
	pushq	%rbx
	subq	$56, %rsp
	.cfi_offset 3, -24
	movq	%rdi, -40(%rbp)
	movq	%rsi, -48(%rbp)
	movl	%edx, -52(%rbp)
	.loc 1 1902 0
	movl	-52(%rbp), %eax
	cmpl	$1, %eax
	je	.L33
	cmpl	$1, %eax
	jg	.L34
	testl	%eax, %eax
	je	.L35
	jmp	.L32
.L34:
	cmpl	$2, %eax
	je	.L36
	cmpl	$3, %eax
	je	.L37
	jmp	.L32
.L35:
	.loc 1 1906 0
	movq	-40(%rbp), %rax
	movq	%rax, %rdi
	call	_ZNSt9_Any_data9_M_accessIPKSt9type_infoEERT_v
	movq	$_ZTIZ4mainEUlvE_, (%rax)
	.loc 1 1907 0
	jmp	.L32
.L33:
	.loc 1 1910 0
	movq	-40(%rbp), %rax
	movq	%rax, %rdi
	call	_ZNSt9_Any_data9_M_accessIPZ4mainEUlvE_EERT_v
	movq	%rax, %rbx
	movq	-48(%rbp), %rax
	movq	%rax, %rdi
	call	_ZNSt14_Function_base13_Base_managerIZ4mainEUlvE_E14_M_get_pointerERKSt9_Any_data
	movq	%rax, (%rbx)
	.loc 1 1911 0
	jmp	.L32
.L36:
	.loc 1 1914 0
	subq	$8, %rsp
	movq	-48(%rbp), %rdx
	movq	-40(%rbp), %rax
	pushq	%r8
	movq	%rdx, %rsi
	movq	%rax, %rdi
	call	_ZNSt14_Function_base13_Base_managerIZ4mainEUlvE_E8_M_cloneERSt9_Any_dataRKS3_St17integral_constantIbLb0EE
	addq	$16, %rsp
	.loc 1 1915 0
	jmp	.L32
.L37:
	.loc 1 1918 0
	subq	$8, %rsp
	movq	-40(%rbp), %rax
	pushq	%rcx
	movq	%rax, %rdi
	call	_ZNSt14_Function_base13_Base_managerIZ4mainEUlvE_E10_M_destroyERSt9_Any_dataSt17integral_constantIbLb0EE
	addq	$16, %rsp
	.loc 1 1919 0
	nop
.L32:
	.loc 1 1921 0
	movl	$0, %eax
	.loc 1 1922 0
	movq	-8(%rbp), %rbx
	leave
	.cfi_def_cfa 7, 8
	ret
	.cfi_endproc
.LFE1293:
	.size	_ZNSt14_Function_base13_Base_managerIZ4mainEUlvE_E10_M_managerERSt9_Any_dataRKS3_St18_Manager_operation, .-_ZNSt14_Function_base13_Base_managerIZ4mainEUlvE_E10_M_managerERSt9_Any_dataRKS3_St18_Manager_operation
	.type	_ZNSt14_Function_base13_Base_managerIZ4mainEUlvE_E15_M_init_functorERSt9_Any_dataOS1_St17integral_constantIbLb0EE, @function
_ZNSt14_Function_base13_Base_managerIZ4mainEUlvE_E15_M_init_functorERSt9_Any_dataOS1_St17integral_constantIbLb0EE:
.LFB1323:
	.loc 1 1954 0
	.cfi_startproc
	pushq	%rbp
	.cfi_def_cfa_offset 16
	.cfi_offset 6, -16
	movq	%rsp, %rbp
	.cfi_def_cfa_register 6
	pushq	%r12
	pushq	%rbx
	subq	$16, %rsp
	.cfi_offset 12, -24
	.cfi_offset 3, -32
	movq	%rdi, -24(%rbp)
	movq	%rsi, -32(%rbp)
	.loc 1 1955 0
	movq	-32(%rbp), %rax
	movq	%rax, %rdi
	call	_ZSt4moveIRZ4mainEUlvE_EONSt16remove_referenceIT_E4typeEOS3_
	movq	%rax, %r12
	movl	$8, %edi
	call	_Znwm
	movq	%rax, %rbx
	movq	(%r12), %rax
	movq	%rax, (%rbx)
	movq	-24(%rbp), %rax
	movq	%rax, %rdi
	call	_ZNSt9_Any_data9_M_accessIPZ4mainEUlvE_EERT_v
	movq	%rbx, (%rax)
	addq	$16, %rsp
	popq	%rbx
	popq	%r12
	popq	%rbp
	.cfi_def_cfa 7, 8
	ret
	.cfi_endproc
.LFE1323:
	.size	_ZNSt14_Function_base13_Base_managerIZ4mainEUlvE_E15_M_init_functorERSt9_Any_dataOS1_St17integral_constantIbLb0EE, .-_ZNSt14_Function_base13_Base_managerIZ4mainEUlvE_E15_M_init_functorERSt9_Any_dataOS1_St17integral_constantIbLb0EE
	.type	_ZNSt14_Function_base13_Base_managerIZ4mainEUlvE_E14_M_get_pointerERKSt9_Any_data, @function
_ZNSt14_Function_base13_Base_managerIZ4mainEUlvE_E14_M_get_pointerERKSt9_Any_data:
.LFB1324:
	.loc 1 1857 0
	.cfi_startproc
	pushq	%rbp
	.cfi_def_cfa_offset 16
	.cfi_offset 6, -16
	movq	%rsp, %rbp
	.cfi_def_cfa_register 6
	subq	$32, %rsp
	movq	%rdi, -24(%rbp)
.LBB9:
	.loc 1 1860 0
	movq	-24(%rbp), %rax
	movq	%rax, %rdi
	call	_ZNKSt9_Any_data9_M_accessIPZ4mainEUlvE_EERKT_v
	.loc 1 1861 0
	movq	(%rax), %rax
	movq	%rax, -8(%rbp)
	.loc 1 1862 0
	movq	-8(%rbp), %rax
.LBE9:
	.loc 1 1863 0
	leave
	.cfi_def_cfa 7, 8
	ret
	.cfi_endproc
.LFE1324:
	.size	_ZNSt14_Function_base13_Base_managerIZ4mainEUlvE_E14_M_get_pointerERKSt9_Any_data, .-_ZNSt14_Function_base13_Base_managerIZ4mainEUlvE_E14_M_get_pointerERKSt9_Any_data
	.section	.text._ZNSt9_Any_data9_M_accessIPKSt9type_infoEERT_v,"axG",@progbits,_ZNSt9_Any_data9_M_accessIPKSt9type_infoEERT_v,comdat
	.align 2
	.weak	_ZNSt9_Any_data9_M_accessIPKSt9type_infoEERT_v
	.type	_ZNSt9_Any_data9_M_accessIPKSt9type_infoEERT_v, @function
_ZNSt9_Any_data9_M_accessIPKSt9type_infoEERT_v:
.LFB1325:
	.loc 1 1771 0
	.cfi_startproc
	pushq	%rbp
	.cfi_def_cfa_offset 16
	.cfi_offset 6, -16
	movq	%rsp, %rbp
	.cfi_def_cfa_register 6
	subq	$16, %rsp
	movq	%rdi, -8(%rbp)
	.loc 1 1772 0
	movq	-8(%rbp), %rax
	movq	%rax, %rdi
	call	_ZNSt9_Any_data9_M_accessEv
	leave
	.cfi_def_cfa 7, 8
	ret
	.cfi_endproc
.LFE1325:
	.size	_ZNSt9_Any_data9_M_accessIPKSt9type_infoEERT_v, .-_ZNSt9_Any_data9_M_accessIPKSt9type_infoEERT_v
	.text
	.align 2
	.type	_ZNSt9_Any_data9_M_accessIPZ4mainEUlvE_EERT_v, @function
_ZNSt9_Any_data9_M_accessIPZ4mainEUlvE_EERT_v:
.LFB1326:
	.loc 1 1771 0
	.cfi_startproc
	pushq	%rbp
	.cfi_def_cfa_offset 16
	.cfi_offset 6, -16
	movq	%rsp, %rbp
	.cfi_def_cfa_register 6
	subq	$16, %rsp
	movq	%rdi, -8(%rbp)
	.loc 1 1772 0
	movq	-8(%rbp), %rax
	movq	%rax, %rdi
	call	_ZNSt9_Any_data9_M_accessEv
	leave
	.cfi_def_cfa 7, 8
	ret
	.cfi_endproc
.LFE1326:
	.size	_ZNSt9_Any_data9_M_accessIPZ4mainEUlvE_EERT_v, .-_ZNSt9_Any_data9_M_accessIPZ4mainEUlvE_EERT_v
	.type	_ZNSt14_Function_base13_Base_managerIZ4mainEUlvE_E8_M_cloneERSt9_Any_dataRKS3_St17integral_constantIbLb0EE, @function
_ZNSt14_Function_base13_Base_managerIZ4mainEUlvE_E8_M_cloneERSt9_Any_dataRKS3_St17integral_constantIbLb0EE:
.LFB1327:
	.loc 1 1876 0
	.cfi_startproc
	pushq	%rbp
	.cfi_def_cfa_offset 16
	.cfi_offset 6, -16
	movq	%rsp, %rbp
	.cfi_def_cfa_register 6
	pushq	%r12
	pushq	%rbx
	subq	$16, %rsp
	.cfi_offset 12, -24
	.cfi_offset 3, -32
	movq	%rdi, -24(%rbp)
	movq	%rsi, -32(%rbp)
	.loc 1 1879 0
	movq	-32(%rbp), %rax
	movq	%rax, %rdi
	call	_ZNKSt9_Any_data9_M_accessIPZ4mainEUlvE_EERKT_v
	.loc 1 1878 0
	movq	(%rax), %r12
	movl	$8, %edi
	call	_Znwm
	movq	%rax, %rbx
	movq	(%r12), %rax
	movq	%rax, (%rbx)
	movq	-24(%rbp), %rax
	movq	%rax, %rdi
	call	_ZNSt9_Any_data9_M_accessIPZ4mainEUlvE_EERT_v
	movq	%rbx, (%rax)
	.loc 1 1880 0
	addq	$16, %rsp
	popq	%rbx
	popq	%r12
	popq	%rbp
	.cfi_def_cfa 7, 8
	ret
	.cfi_endproc
.LFE1327:
	.size	_ZNSt14_Function_base13_Base_managerIZ4mainEUlvE_E8_M_cloneERSt9_Any_dataRKS3_St17integral_constantIbLb0EE, .-_ZNSt14_Function_base13_Base_managerIZ4mainEUlvE_E8_M_cloneERSt9_Any_dataRKS3_St17integral_constantIbLb0EE
	.type	_ZNSt14_Function_base13_Base_managerIZ4mainEUlvE_E10_M_destroyERSt9_Any_dataSt17integral_constantIbLb0EE, @function
_ZNSt14_Function_base13_Base_managerIZ4mainEUlvE_E10_M_destroyERSt9_Any_dataSt17integral_constantIbLb0EE:
.LFB1328:
	.loc 1 1892 0
	.cfi_startproc
	pushq	%rbp
	.cfi_def_cfa_offset 16
	.cfi_offset 6, -16
	movq	%rsp, %rbp
	.cfi_def_cfa_register 6
	subq	$16, %rsp
	movq	%rdi, -8(%rbp)
	.loc 1 1894 0
	movq	-8(%rbp), %rax
	movq	%rax, %rdi
	call	_ZNSt9_Any_data9_M_accessIPZ4mainEUlvE_EERT_v
	movq	(%rax), %rax
	movq	%rax, %rdi
	call	_ZdlPv
	.loc 1 1895 0
	leave
	.cfi_def_cfa 7, 8
	ret
	.cfi_endproc
.LFE1328:
	.size	_ZNSt14_Function_base13_Base_managerIZ4mainEUlvE_E10_M_destroyERSt9_Any_dataSt17integral_constantIbLb0EE, .-_ZNSt14_Function_base13_Base_managerIZ4mainEUlvE_E10_M_destroyERSt9_Any_dataSt17integral_constantIbLb0EE
	.align 2
	.type	_ZNKSt9_Any_data9_M_accessIPZ4mainEUlvE_EERKT_v, @function
_ZNKSt9_Any_data9_M_accessIPZ4mainEUlvE_EERKT_v:
.LFB1339:
	.loc 1 1776 0
	.cfi_startproc
	pushq	%rbp
	.cfi_def_cfa_offset 16
	.cfi_offset 6, -16
	movq	%rsp, %rbp
	.cfi_def_cfa_register 6
	subq	$16, %rsp
	movq	%rdi, -8(%rbp)
	.loc 1 1777 0
	movq	-8(%rbp), %rax
	movq	%rax, %rdi
	call	_ZNKSt9_Any_data9_M_accessEv
	leave
	.cfi_def_cfa 7, 8
	ret
	.cfi_endproc
.LFE1339:
	.size	_ZNKSt9_Any_data9_M_accessIPZ4mainEUlvE_EERKT_v, .-_ZNKSt9_Any_data9_M_accessIPZ4mainEUlvE_EERKT_v
	.section	.rodata
	.align 16
	.type	_ZTIZ4mainEUlvE_, @object
	.size	_ZTIZ4mainEUlvE_, 16
_ZTIZ4mainEUlvE_:
	.quad	_ZTVN10__cxxabiv117__class_type_infoE+16
	.quad	_ZTSZ4mainEUlvE_
	.type	_ZTSZ4mainEUlvE_, @object
	.size	_ZTSZ4mainEUlvE_, 14
_ZTSZ4mainEUlvE_:
	.string	"*Z4mainEUlvE_"
	.text
.Letext0:
	.file 4 "/usr/include/c++/4.9/bits/exception_ptr.h"
	.file 5 "/usr/include/x86_64-linux-gnu/c++/4.9/bits/c++config.h"
	.file 6 "/usr/include/c++/4.9/type_traits"
	.file 7 "/usr/include/c++/4.9/cwchar"
	.file 8 "/usr/include/c++/4.9/cstdint"
	.file 9 "/usr/include/c++/4.9/clocale"
	.file 10 "/usr/include/c++/4.9/cstdlib"
	.file 11 "/usr/include/c++/4.9/cstdio"
	.file 12 "/usr/include/c++/4.9/bits/stl_pair.h"
	.file 13 "/usr/include/c++/4.9/bits/uses_allocator.h"
	.file 14 "/usr/include/c++/4.9/tuple"
	.file 15 "/usr/include/c++/4.9/exception"
	.file 16 "/usr/include/c++/4.9/debug/debug.h"
	.file 17 "/usr/include/c++/4.9/bits/predefined_ops.h"
	.file 18 "/usr/include/c++/4.9/ext/new_allocator.h"
	.file 19 "/usr/include/c++/4.9/ext/numeric_traits.h"
	.file 20 "/usr/include/stdio.h"
	.file 21 "/usr/include/libio.h"
	.file 22 "<built-in>"
	.file 23 "/usr/lib/gcc/x86_64-linux-gnu/4.9/include/stddef.h"
	.file 24 "/usr/include/wchar.h"
	.file 25 "/usr/include/time.h"
	.file 26 "/usr/include/stdint.h"
	.file 27 "/usr/include/locale.h"
	.file 28 "/usr/include/x86_64-linux-gnu/bits/types.h"
	.file 29 "/usr/include/stdlib.h"
	.file 30 "/usr/include/_G_config.h"
	.section	.note.GNU-stack,"",@progbits
