	.file	"simple_call.cpp"
	.text
.Ltext0:
	.globl	_Z1fiiiiiii
	.type	_Z1fiiiiiii, @function
_Z1fiiiiiii:
.LFB0:
	.file 1 "simple_call.cpp"
	.loc 1 4 0
	.cfi_startproc
	pushq	%rbp
	.cfi_def_cfa_offset 16
	.cfi_offset 6, -16
	movq	%rsp, %rbp
	.cfi_def_cfa_register 6
	movl	%edi, -4(%rbp)
	movl	%esi, -8(%rbp)
	movl	%edx, -12(%rbp)
	movl	%ecx, -16(%rbp)
	movl	%r8d, -20(%rbp)
	movl	%r9d, -24(%rbp)
	.loc 1 5 0
	movl	-4(%rbp), %edx
	movl	-8(%rbp), %eax
	addl	%eax, %edx
	movl	-12(%rbp), %eax
	addl	%eax, %edx
	movl	-16(%rbp), %eax
	addl	%eax, %edx
	movl	-20(%rbp), %eax
	addl	%eax, %edx
	movl	-24(%rbp), %eax
	addl	%eax, %edx
	movl	16(%rbp), %eax
	addl	%edx, %eax
	.loc 1 6 0
	popq	%rbp
	.cfi_def_cfa 7, 8
	ret
	.cfi_endproc
.LFE0:
	.size	_Z1fiiiiiii, .-_Z1fiiiiiii
	.section	.rodata
.LC0:
	.string	"%d"
	.text
	.globl	main
	.type	main, @function
main:
.LFB1:
	.loc 1 8 0
	.cfi_startproc
	pushq	%rbp
	.cfi_def_cfa_offset 16
	.cfi_offset 6, -16
	movq	%rsp, %rbp
	.cfi_def_cfa_register 6
	subq	$32, %rsp
	movl	%edi, -20(%rbp)
	movq	%rsi, -32(%rbp)
.LBB2:
	.loc 1 9 0
	pushq	$7
	movl	$6, %r9d
	movl	$5, %r8d
	movl	$4, %ecx
	movl	$3, %edx
	movl	$2, %esi
	movl	$1, %edi
	call	_Z1fiiiiiii
	addq	$8, %rsp
	movl	%eax, -4(%rbp)
	.loc 1 10 0
	movl	-4(%rbp), %eax
	movl	%eax, %esi
	movl	$.LC0, %edi
	movl	$0, %eax
	call	printf
	.loc 1 11 0
	movl	$0, %eax
.LBE2:
	.loc 1 12 0
	leave
	.cfi_def_cfa 7, 8
	ret
	.cfi_endproc
.LFE1:
	.size	main, .-main
.Letext0:
	.file 2 "/usr/lib/gcc/x86_64-linux-gnu/4.9/include/stddef.h"
	.file 3 "/usr/include/x86_64-linux-gnu/bits/types.h"
	.file 4 "/usr/include/stdio.h"
	.file 5 "/usr/include/libio.h"
	.file 6 "/usr/include/wchar.h"
	.file 7 "/usr/include/_G_config.h"
	.file 8 "/usr/include/c++/4.9/cstdio"
	.file 9 "<built-in>"
	.section	.note.GNU-stack,"",@progbits
